; Function Attrs: nofree norecurse nosync nounwind memory(argmem: read) uwtable
define dso_local i32 @bit_clear_count(ptr noundef readonly captures(none) %0) #3 {
  %2 = getelementptr inbounds nuw i8, ptr %0, i64 8
  %3 = load i64, ptr %2, align 8
  %invariant.gep.i = getelementptr i8, ptr %0, i64 16
  %.not17.i = icmp ult i64 %3, 64
  br i1 %.not17.i, label %._crit_edge.i, label %.lr.ph.i

.lr.ph.i:                                         ; preds = %1, %.lr.ph.i
  %4 = phi i64 [ %10, %.lr.ph.i ], [ 64, %1 ]
  %.019.i = phi i32 [ %9, %.lr.ph.i ], [ 0, %1 ]
  %.01418.i = phi i64 [ %4, %.lr.ph.i ], [ 0, %1 ]
  %5 = ashr exact i64 %.01418.i, 3
  %gep.i = getelementptr i8, ptr %invariant.gep.i, i64 %5
  %6 = load i64, ptr %gep.i, align 8
  %7 = tail call range(i64 0, 65) i64 @llvm.ctpop.i64(i64 %6)
  %8 = trunc nuw nsw i64 %7 to i32
  %9 = add nuw nsw i32 %.019.i, %8
  %10 = add i64 %4, 64
  %.not.i = icmp ugt i64 %10, %3
  br i1 %.not.i, label %._crit_edge.i, label %.lr.ph.i, !llvm.loop !20

._crit_edge.i:                                    ; preds = %.lr.ph.i, %1
  %.014.lcssa.i = phi i64 [ 0, %1 ], [ %4, %.lr.ph.i ]
  %.0.lcssa.i = phi i32 [ 0, %1 ], [ %9, %.lr.ph.i ]
  %11 = icmp slt i64 %.014.lcssa.i, %3
  br i1 %11, label %12, label %bit_set_count.exit

12:                                               ; preds = %._crit_edge.i
  %13 = and i64 %3, 63
  %notmask.i = shl nsw i64 -1, %13
  %14 = xor i64 %notmask.i, -1
  %15 = ashr exact i64 %.014.lcssa.i, 3
  %16 = getelementptr i8, ptr %0, i64 %15
  %17 = getelementptr i8, ptr %16, i64 16
  %18 = load i64, ptr %17, align 8
  %19 = and i64 %18, %14
  %20 = tail call range(i64 0, 64) i64 @llvm.ctpop.i64(i64 %19)
  %21 = trunc nuw nsw i64 %20 to i32
  %22 = add nuw nsw i32 %.0.lcssa.i, %21
  br label %bit_set_count.exit

bit_set_count.exit:                               ; preds = %._crit_edge.i, %12
  %.1.i = phi i32 [ %22, %12 ], [ %.0.lcssa.i, %._crit_edge.i ]
  %23 = trunc i64 %3 to i32
  %24 = sub i32 %23, %.1.i
  ret i32 %24
}